Certificate:
    Data:
        Version: 3 (0x2)
        Serial Number: 12151470501379154544 (0xa8a2b20a2d57a270)
    Signature Algorithm: sha1WithRSAEncryption
        Issuer: C=CA, ST=Ontario, O=Sojourn Labs Inc., CN=ca.sojournlabs.com/emailAddress=admin@sojournlabs.com
        Validity
            Not Before: Mar  3 05:02:38 2015 GMT
            Not After : Mar 15 05:02:38 2024 GMT
        Subject: C=CA, ST=Ontario, O=Sojourn Labs Inc., CN=ca.sojournlabs.com/emailAddress=admin@sojournlabs.com
        Subject Public Key Info:
            Public Key Algorithm: rsaEncryption
                Public-Key: (4096 bit)
                Modulus:
                    00:da:3d:94:80:4e:fc:c2:09:af:a4:e0:ac:91:b2:
                    72:49:50:b8:be:80:ec:ad:91:06:40:06:25:39:6b:
                    4d:b3:0f:c5:29:21:c9:0b:4b:04:20:4f:a8:16:25:
                    80:6e:01:36:db:b4:c8:a0:b3:6c:e8:0e:4f:5b:5f:
                    e6:8e:11:d8:03:75:06:ba:22:85:66:f4:71:bf:44:
                    0e:05:21:0b:77:87:8e:57:6f:39:ce:8d:ff:4b:11:
                    07:0b:47:a9:b1:e9:43:b9:fe:61:fc:0c:62:9e:77:
                    ba:3a:f0:57:f8:4e:f9:a5:eb:c8:27:c0:2f:51:28:
                    b0:63:e5:18:0e:a4:4d:8f:fb:0b:da:67:ec:f2:5f:
                    5b:f2:b6:93:0a:00:89:06:5e:da:e3:36:bb:84:43:
                    e3:8c:3c:a9:fe:a7:ee:4b:11:73:ab:be:fd:11:41:
                    56:b4:e5:03:10:e3:b4:da:4c:30:8c:96:f5:a2:3b:
                    b0:17:da:fb:a0:29:16:0a:9b:8b:00:0b:16:52:89:
                    bd:43:28:64:aa:ef:66:8a:32:5d:3d:93:32:99:61:
                    76:3c:ea:08:56:64:bf:5c:f2:61:f2:4c:05:d3:cc:
                    6e:90:ac:c5:18:e6:b3:13:d5:24:6f:93:41:47:5b:
                    8f:d4:77:78:bd:70:89:1f:ee:a5:bd:ac:fd:8b:9b:
                    11:ce:c5:b4:af:2b:18:8f:27:b7:47:46:9e:37:e8:
                    00:c4:f4:16:18:b9:ec:98:50:ec:f1:9d:d0:ba:36:
                    90:d4:93:82:be:9e:cf:c0:87:9d:5c:1a:f5:b7:05:
                    2f:82:48:01:af:5a:f2:ba:9a:fc:80:dd:93:ca:8a:
                    38:1d:49:17:06:7d:b4:95:c7:58:55:ab:22:2e:9c:
                    36:e9:d2:13:a5:58:cf:8e:89:1e:51:07:5a:ac:d0:
                    23:0b:63:07:0f:4f:2d:c1:95:96:54:fd:7a:80:ff:
                    ba:90:ff:bc:17:5e:31:cf:c6:76:ab:e0:de:3b:1e:
                    c5:b6:59:be:fa:e0:7e:b9:49:71:99:9d:3b:bc:b4:
                    7f:dc:6a:0d:1a:d6:b8:a3:3e:1a:2b:cd:37:e3:21:
                    69:e1:bd:8a:5d:29:94:db:33:b5:88:3c:11:f6:e1:
                    a4:e1:9e:8a:b3:e7:77:bd:c5:3a:35:5c:6b:46:2e:
                    db:a4:e0:9d:0a:22:6f:f6:70:b3:1d:21:43:1f:b9:
                    70:a0:db:c7:59:01:9e:f3:2b:33:b8:09:a0:cb:45:
                    99:5c:5a:b8:1d:57:c7:12:e3:a9:a2:b7:6d:1b:14:
                    c4:dd:20:0d:b8:5a:f1:9b:4a:f0:71:17:b9:d6:81:
                    6b:90:85:cb:7e:8a:d2:35:55:25:39:6c:07:07:f1:
                    3a:50:4d
                Exponent: 65537 (0x10001)
        X509v3 extensions:
            X509v3 Subject Key Identifier: 
                27:6C:6F:0D:32:AB:FE:67:49:C3:2E:30:94:2A:CA:41:94:4F:8F:6F
            X509v3 Authority Key Identifier: 
                keyid:27:6C:6F:0D:32:AB:FE:67:49:C3:2E:30:94:2A:CA:41:94:4F:8F:6F

            X509v3 Basic Constraints: 
                CA:TRUE
            X509v3 Subject Alternative Name: 
                IP Address:255.255.255.255
            X509v3 Key Usage: 
                Digital Signature, Non Repudiation, Key Encipherment
    Signature Algorithm: sha1WithRSAEncryption
         c8:14:4a:1f:06:93:ca:1b:4b:e8:85:6e:a5:13:e3:90:06:93:
         24:2c:71:db:5c:e1:ba:ea:2b:63:2a:f8:ea:f3:6e:31:50:25:
         a2:cc:61:c5:32:32:2d:56:e4:8e:fa:be:1f:af:f4:cd:36:ce:
         c9:6d:2a:7a:7b:61:ba:dd:eb:1e:1b:75:cd:0d:e4:31:31:96:
         d9:3e:94:c4:30:fe:d2:37:aa:6d:7d:e9:98:9a:dc:f7:ff:0f:
         6d:16:70:aa:35:8e:94:eb:c4:10:4c:44:99:15:cc:4e:ee:96:
         fe:de:14:db:aa:29:d0:3a:f1:fd:b3:03:31:f1:4f:83:65:ed:
         5a:52:09:73:a9:e1:c0:9f:53:a8:4e:e4:9a:dd:d2:b8:78:a7:
         46:1b:10:24:54:a7:7c:bc:85:7d:2c:ec:5f:65:84:ea:59:38:
         ba:b4:75:4e:c8:c9:f9:40:08:4f:a5:22:f0:c2:08:b7:a2:7b:
         65:87:cf:14:58:65:6b:13:16:50:f7:c2:4d:43:3b:99:6f:41:
         0a:37:88:a8:12:64:6d:33:9f:d1:6f:27:01:79:07:b7:37:46:
         df:82:84:78:33:0a:64:da:bd:d6:5f:72:53:82:f1:8d:88:58:
         3e:2d:87:0d:a9:d7:29:5c:9c:94:0b:33:fa:8b:d9:ca:79:c8:
         ff:86:ed:9c:2b:79:80:b0:77:83:8a:74:a4:f0:97:6e:d8:44:
         da:fe:4a:65:1a:fb:33:9a:f6:93:42:0f:5a:bf:ba:ce:91:15:
         89:13:13:11:b8:cf:50:26:51:1a:f4:2a:9a:23:d3:c4:91:42:
         ef:d5:47:4f:54:4f:c3:ec:f1:2c:1d:ca:39:e9:f3:91:7c:48:
         3d:3c:1c:05:fb:91:fd:d1:c3:75:2e:de:63:3d:ed:d9:24:7a:
         d5:46:88:e8:a3:c8:a2:64:00:66:0f:01:cf:16:8e:7e:6e:5c:
         b1:76:5f:a7:70:cf:b6:76:fd:c2:52:10:88:fd:98:a4:a2:9e:
         c9:9f:41:81:f7:bb:78:37:28:35:3d:24:ba:44:49:dc:f6:19:
         85:24:d8:05:23:c8:cf:fa:f9:91:a5:22:db:f7:a1:ab:4f:5e:
         a1:50:a1:32:b1:5a:5b:bb:26:07:ed:cf:fc:d9:da:c6:ed:a6:
         47:34:f4:6b:57:00:ad:78:c4:50:95:05:3b:60:06:87:ee:c2:
         a0:04:41:9e:4a:8c:0a:04:fe:14:e3:e6:55:6b:37:dd:4f:eb:
         ed:fd:fe:18:e1:4b:d5:09:f4:ce:cc:4f:36:de:c8:e3:9c:c4:
         93:e3:65:78:33:ef:62:89:62:99:61:66:7d:c3:86:ea:8d:cb:
         0f:1e:49:d7:d1:d6:f1:74
-----BEGIN CERTIFICATE-----
MIIF7TCCA9WgAwIBAgIJAKiisgotV6JwMA0GCSqGSIb3DQEBBQUAMH4xCzAJBgNV
BAYTAkNBMRAwDgYDVQQIDAdPbnRhcmlvMRowGAYDVQQKDBFTb2pvdXJuIExhYnMg
SW5jLjEbMBkGA1UEAwwSY2Euc29qb3VybmxhYnMuY29tMSQwIgYJKoZIhvcNAQkB
FhVhZG1pbkBzb2pvdXJubGFicy5jb20wHhcNMTUwMzAzMDUwMjM4WhcNMjQwMzE1
MDUwMjM4WjB+MQswCQYDVQQGEwJDQTEQMA4GA1UECAwHT250YXJpbzEaMBgGA1UE
CgwRU29qb3VybiBMYWJzIEluYy4xGzAZBgNVBAMMEmNhLnNvam91cm5sYWJzLmNv
bTEkMCIGCSqGSIb3DQEJARYVYWRtaW5Ac29qb3VybmxhYnMuY29tMIICIjANBgkq
hkiG9w0BAQEFAAOCAg8AMIICCgKCAgEA2j2UgE78wgmvpOCskbJySVC4voDsrZEG
QAYlOWtNsw/FKSHJC0sEIE+oFiWAbgE227TIoLNs6A5PW1/mjhHYA3UGuiKFZvRx
v0QOBSELd4eOV285zo3/SxEHC0epselDuf5h/Axinne6OvBX+E75pevIJ8AvUSiw
Y+UYDqRNj/sL2mfs8l9b8raTCgCJBl7a4za7hEPjjDyp/qfuSxFzq779EUFWtOUD
EOO02kwwjJb1ojuwF9r7oCkWCpuLAAsWUom9Qyhkqu9mijJdPZMymWF2POoIVmS/
XPJh8kwF08xukKzFGOazE9Ukb5NBR1uP1Hd4vXCJH+6lvaz9i5sRzsW0rysYjye3
R0aeN+gAxPQWGLnsmFDs8Z3QujaQ1JOCvp7PwIedXBr1twUvgkgBr1ryupr8gN2T
yoo4HUkXBn20lcdYVasiLpw26dITpVjPjokeUQdarNAjC2MHD08twZWWVP16gP+6
kP+8F14xz8Z2q+DeOx7Ftlm++uB+uUlxmZ07vLR/3GoNGta4oz4aK8034yFp4b2K
XSmU2zO1iDwR9uGk4Z6Ks+d3vcU6NVxrRi7bpOCdCiJv9nCzHSFDH7lwoNvHWQGe
8yszuAmgy0WZXFq4HVfHEuOpordtGxTE3SANuFrxm0rwcRe51oFrkIXLforSNVUl
OWwHB/E6UE0CAwEAAaNuMGwwHQYDVR0OBBYEFCdsbw0yq/5nScMuMJQqykGUT49v
MB8GA1UdIwQYMBaAFCdsbw0yq/5nScMuMJQqykGUT49vMAwGA1UdEwQFMAMBAf8w
DwYDVR0RBAgwBocE/////zALBgNVHQ8EBAMCBeAwDQYJKoZIhvcNAQEFBQADggIB
AMgUSh8Gk8obS+iFbqUT45AGkyQscdtc4brqK2Mq+OrzbjFQJaLMYcUyMi1W5I76
vh+v9M02zsltKnp7Ybrd6x4bdc0N5DExltk+lMQw/tI3qm196Zia3Pf/D20WcKo1
jpTrxBBMRJkVzE7ulv7eFNuqKdA68f2zAzHxT4Nl7VpSCXOp4cCfU6hO5Jrd0rh4
p0YbECRUp3y8hX0s7F9lhOpZOLq0dU7IyflACE+lIvDCCLeie2WHzxRYZWsTFlD3
wk1DO5lvQQo3iKgSZG0zn9FvJwF5B7c3Rt+ChHgzCmTavdZfclOC8Y2IWD4thw2p
1ylcnJQLM/qL2cp5yP+G7ZwreYCwd4OKdKTwl27YRNr+SmUa+zOa9pNCD1q/us6R
FYkTExG4z1AmURr0Kpoj08SRQu/VR09UT8Ps8Swdyjnp85F8SD08HAX7kf3Rw3Uu
3mM97dkketVGiOijyKJkAGYPAc8Wjn5uXLF2X6dwz7Z2/cJSEIj9mKSinsmfQYH3
u3g3KDU9JLpESdz2GYUk2AUjyM/6+ZGlItv3oatPXqFQoTKxWlu7Jgftz/zZ2sbt
pkc09GtXAK14xFCVBTtgBofuwqAEQZ5KjAoE/hTj5lVrN91P6+39/hjhS9UJ9M7M
TzbeyOOcxJPjZXgz72KJYplhZn3DhuqNyw8eSdfR1vF0
-----END CERTIFICATE-----
